target datalayout = "e-m:e-p270:32:32-p271:32:32-p272:64:64-i64:64-i128:128-f80:128-n8:16:32:64-S128"
target triple = "x86_64-pc-linux-gnu"

@conf = dso_local global ptr null, align 8
@.str.62 = private unnamed_addr constant [58 x i8] c"%s: Failed to send slurmd conf to slurmstepd for spank/%s\00", align 1
@__func__._send_conf_cb = private unnamed_addr constant [14 x i8] c"_send_conf_cb\00", align 1

; Function Attrs: nounwind uwtable
define internal void @_send_conf_cb(i32 noundef %0, ptr noundef %1) #0 {
  %3 = alloca i32, align 4
  %4 = alloca ptr, align 8
  %5 = alloca ptr, align 8
  store i32 %0, ptr %3, align 4
  store ptr %1, ptr %4, align 8
  call void @llvm.lifetime.start.p0(i64 8, ptr %5) #6
  %6 = load ptr, ptr %4, align 8
  store ptr %6, ptr %5, align 8
  %7 = load i32, ptr %3, align 4
  %8 = load ptr, ptr @conf, align 8
  %9 = call i32 @send_slurmd_conf_lite(i32 noundef %7, ptr noundef %8)
  %10 = icmp slt i32 %9, 0
  br i1 %10, label %11, label %14

11:                                               ; preds = %2
  %12 = load ptr, ptr %5, align 8
  %13 = call i32 (ptr, ...) @error(ptr noundef @.str.62, ptr noundef @__func__._send_conf_cb, ptr noundef %12)
  br label %14

14:                                               ; preds = %11, %2
  call void @llvm.lifetime.end.p0(i64 8, ptr %5) #6
  ret void
}