; Function Attrs: nounwind uwtable
define internal void @_send_conf_cb(i32 noundef %0, ptr noundef %1) #0 {
  %3 = load ptr, ptr @conf, align 8
  %4 = tail call i32 @send_slurmd_conf_lite(i32 noundef %0, ptr noundef %3) #6
  %5 = icmp slt i32 %4, 0
  br i1 %5, label %6, label %8

6:                                                ; preds = %2
  %7 = tail call i32 (ptr, ...) @error(ptr noundef nonnull @.str.62, ptr noundef nonnull @__func__._send_conf_cb, ptr noundef %1) #6
  br label %8

8:                                                ; preds = %6, %2
  ret void
}